; Function Attrs: mustprogress uwtable
define noundef zeroext i1 @_ZNK19OpenColorIO_v2_5dev16GpuShaderCreator18hasDynamicPropertyENS_19DynamicPropertyTypeE(ptr noundef nonnull readonly align 8 captures(none) dereferenceable(16) %0, i32 noundef %1) local_unnamed_addr #0 align 2 {
  %3 = getelementptr inbounds nuw i8, ptr %0, i64 8
  %4 = load ptr, ptr %3, align 8, !tbaa !6
  %5 = getelementptr inbounds nuw i8, ptr %4, i64 440
  %6 = load ptr, ptr %5, align 8, !tbaa !54
  %7 = getelementptr inbounds nuw i8, ptr %4, i64 448
  %8 = load ptr, ptr %7, align 8, !tbaa !54
  %.not1213.not = icmp eq ptr %6, %8
  br i1 %.not1213.not, label %._crit_edge, label %.lr.ph

.lr.ph:                                           ; preds = %2, %.lr.ph
  %.sroa.09.014 = phi ptr [ %13, %.lr.ph ], [ %6, %2 ]
  %9 = load ptr, ptr %.sroa.09.014, align 8, !tbaa !55
  %10 = load ptr, ptr %9, align 8, !tbaa !3
  %11 = load ptr, ptr %10, align 8
  %12 = tail call noundef i32 %11(ptr noundef nonnull align 8 dereferenceable(8) %9) #26
  %.not = icmp eq i32 %12, %1
  %13 = getelementptr inbounds nuw i8, ptr %.sroa.09.014, i64 16
  %.not12.not = icmp eq ptr %13, %8
  %or.cond = select i1 %.not, i1 true, i1 %.not12.not
  br i1 %or.cond, label %._crit_edge, label %.lr.ph

._crit_edge:                                      ; preds = %.lr.ph, %2
  %.not12.lcssa = phi i1 [ false, %2 ], [ %.not, %.lr.ph ]
  ret i1 %.not12.lcssa
}